target datalayout = "e-m:e-p270:32:32-p271:32:32-p272:64:64-i64:64-i128:128-f80:128-n8:16:32:64-S128"
target triple = "x86_64-pc-linux-gnu"

%"struct.cv::Ptr" = type { %"class.std::shared_ptr" }
%"class.std::shared_ptr" = type { %"class.std::__shared_ptr" }
%"class.std::__shared_ptr" = type { ptr, %"class.std::__shared_count" }
%"class.std::__shared_count" = type { ptr }
%"class.cv::optflow::RLOFOpticalFlowParameter" = type { i32, i32, float, float, i32, i32, i32, i32, i8, i8, i8, i32, float, float }
%"struct.cv::has_custom_delete" = type { i8 }
%"class.std::_Sp_counted_base" = type { ptr, i32, i32 }
%"class.std::_Sp_counted_ptr" = type { %"class.std::_Sp_counted_base", ptr }

; Function Attrs: mustprogress nounwind uwtable
define linkonce_odr hidden void @_ZNSt16_Sp_counted_baseILN9__gnu_cxx12_Lock_policyE2EEC2Ev(ptr noundef nonnull align 8 dereferenceable(16) %0) unnamed_addr #6 comdat align 2 {
  %2 = alloca ptr, align 8
  store ptr %0, ptr %2, align 8, !tbaa !74
  %3 = load ptr, ptr %2, align 8
  store ptr getelementptr inbounds inrange(-16, 40) ({ [7 x ptr] }, ptr @_ZTVSt16_Sp_counted_baseILN9__gnu_cxx12_Lock_policyE2EE, i32 0, i32 0, i32 2), ptr %3, align 8, !tbaa !39
  %4 = getelementptr inbounds nuw %"class.std::_Sp_counted_base", ptr %3, i32 0, i32 1
  store i32 1, ptr %4, align 8, !tbaa !79
  %5 = getelementptr inbounds nuw %"class.std::_Sp_counted_base", ptr %3, i32 0, i32 2
  store i32 1, ptr %5, align 4, !tbaa !81
  ret void
}

; Function Attrs: mustprogress nounwind uwtable
define linkonce_odr hidden void @_ZNSt15_Sp_counted_ptrIPN2cv7optflow24RLOFOpticalFlowParameterELN9__gnu_cxx12_Lock_policyE2EEC2ES3_(ptr noundef nonnull align 8 dereferenceable(24) %0, ptr noundef %1) unnamed_addr #6 comdat align 2 {
  %3 = alloca ptr, align 8
  %4 = alloca ptr, align 8
  store ptr %0, ptr %3, align 8, !tbaa !93
  store ptr %1, ptr %4, align 8, !tbaa !3
  %5 = load ptr, ptr %3, align 8
  call void @_ZNSt16_Sp_counted_baseILN9__gnu_cxx12_Lock_policyE2EEC2Ev(ptr noundef nonnull align 8 dereferenceable(16) %5) #3
  store ptr getelementptr inbounds inrange(-16, 40) ({ [7 x ptr] }, ptr @_ZTVSt15_Sp_counted_ptrIPN2cv7optflow24RLOFOpticalFlowParameterELN9__gnu_cxx12_Lock_policyE2EE, i32 0, i32 0, i32 2), ptr %5, align 8, !tbaa !39
  %6 = getelementptr inbounds nuw %"class.std::_Sp_counted_ptr", ptr %5, i32 0, i32 1
  %7 = load ptr, ptr %4, align 8, !tbaa !3
  store ptr %7, ptr %6, align 8, !tbaa !95
  ret void
}

; Function Attrs: mustprogress uwtable
define linkonce_odr hidden void @_ZNSt14__shared_countILN9__gnu_cxx12_Lock_policyE2EEC2IPN2cv7optflow24RLOFOpticalFlowParameterEEET_(ptr noundef nonnull align 8 dereferenceable(8) %0, ptr noundef %1) unnamed_addr #4 comdat align 2 personality ptr @__gxx_personality_v0 {
  %3 = alloca ptr, align 8
  %4 = alloca ptr, align 8
  %5 = alloca ptr, align 8
  %6 = alloca i32, align 4
  store ptr %0, ptr %3, align 8, !tbaa !69
  store ptr %1, ptr %4, align 8, !tbaa !3
  %7 = load ptr, ptr %3, align 8
  %8 = getelementptr inbounds nuw %"class.std::__shared_count", ptr %7, i32 0, i32 0
  store ptr null, ptr %8, align 8, !tbaa !71
  %9 = invoke noalias noundef nonnull ptr @_Znwm(i64 noundef 24) #25
          to label %10 unwind label %13

10:                                               ; preds = %2
  %11 = load ptr, ptr %4, align 8, !tbaa !3
  call void @_ZNSt15_Sp_counted_ptrIPN2cv7optflow24RLOFOpticalFlowParameterELN9__gnu_cxx12_Lock_policyE2EEC2ES3_(ptr noundef nonnull align 8 dereferenceable(24) %9, ptr noundef %11) #3
  %12 = getelementptr inbounds nuw %"class.std::__shared_count", ptr %7, i32 0, i32 0
  store ptr %9, ptr %12, align 8, !tbaa !71
  br label %29

13:                                               ; preds = %2
  %14 = landingpad { ptr, i32 }
          catch ptr null
  %15 = extractvalue { ptr, i32 } %14, 0
  store ptr %15, ptr %5, align 8
  %16 = extractvalue { ptr, i32 } %14, 1
  store i32 %16, ptr %6, align 4
  br label %17

17:                                               ; preds = %13
  %18 = load ptr, ptr %5, align 8
  %19 = call ptr @__cxa_begin_catch(ptr %18) #3
  %20 = load ptr, ptr %4, align 8, !tbaa !3
  %21 = icmp eq ptr %20, null
  br i1 %21, label %23, label %22

22:                                               ; preds = %17
  call void @_ZdlPv(ptr noundef %20) #26
  br label %23

23:                                               ; preds = %22, %17
  invoke void @__cxa_rethrow() #28
          to label %38 unwind label %24

24:                                               ; preds = %23
  %25 = landingpad { ptr, i32 }
          cleanup
  %26 = extractvalue { ptr, i32 } %25, 0
  store ptr %26, ptr %5, align 8
  %27 = extractvalue { ptr, i32 } %25, 1
  store i32 %27, ptr %6, align 4
  invoke void @__cxa_end_catch()
          to label %28 unwind label %35

28:                                               ; preds = %24
  br label %30

29:                                               ; preds = %10
  ret void

30:                                               ; preds = %28
  %31 = load ptr, ptr %5, align 8
  %32 = load i32, ptr %6, align 4
  %33 = insertvalue { ptr, i32 } poison, ptr %31, 0
  %34 = insertvalue { ptr, i32 } %33, i32 %32, 1
  resume { ptr, i32 } %34

35:                                               ; preds = %24
  %36 = landingpad { ptr, i32 }
          catch ptr null
  %37 = extractvalue { ptr, i32 } %36, 0
  call void @__clang_call_terminate(ptr %37) #27
  unreachable

38:                                               ; preds = %23
  unreachable
}

; Function Attrs: mustprogress nounwind uwtable
define linkonce_odr hidden void @_ZNSt12__shared_ptrIN2cv7optflow24RLOFOpticalFlowParameterELN9__gnu_cxx12_Lock_policyE2EE31_M_enable_shared_from_this_withIS2_S2_EENSt9enable_ifIXntsr15__has_esft_baseIT0_EE5valueEvE4typeEPT_(ptr noundef nonnull align 8 dereferenceable(16) %0, ptr noundef %1) #6 comdat align 2 {
  %3 = alloca ptr, align 8
  %4 = alloca ptr, align 8
  store ptr %0, ptr %3, align 8, !tbaa !89
  store ptr %1, ptr %4, align 8, !tbaa !3
  ret void
}

; Function Attrs: mustprogress uwtable
define linkonce_odr hidden void @_ZNSt14__shared_countILN9__gnu_cxx12_Lock_policyE2EEC2IPN2cv7optflow24RLOFOpticalFlowParameterEEET_St17integral_constantIbLb0EE(ptr noundef nonnull align 8 dereferenceable(8) %0, ptr noundef %1) unnamed_addr #4 comdat align 2 {
  %3 = alloca ptr, align 8
  %4 = alloca ptr, align 8
  store ptr %0, ptr %3, align 8, !tbaa !69
  store ptr %1, ptr %4, align 8, !tbaa !3
  %5 = load ptr, ptr %3, align 8
  %6 = load ptr, ptr %4, align 8, !tbaa !3
  call void @_ZNSt14__shared_countILN9__gnu_cxx12_Lock_policyE2EEC2IPN2cv7optflow24RLOFOpticalFlowParameterEEET_(ptr noundef nonnull align 8 dereferenceable(8) %5, ptr noundef %6)
  ret void
}

; Function Attrs: mustprogress uwtable
define linkonce_odr hidden void @_ZNSt12__shared_ptrIN2cv7optflow24RLOFOpticalFlowParameterELN9__gnu_cxx12_Lock_policyE2EEC2IS2_vEEPT_(ptr noundef nonnull align 8 dereferenceable(16) %0, ptr noundef %1) unnamed_addr #4 comdat align 2 {
  %3 = alloca ptr, align 8
  %4 = alloca ptr, align 8
  store ptr %0, ptr %3, align 8, !tbaa !89
  store ptr %1, ptr %4, align 8, !tbaa !3
  %5 = load ptr, ptr %3, align 8
  %6 = getelementptr inbounds nuw %"class.std::__shared_ptr", ptr %5, i32 0, i32 0
  %7 = load ptr, ptr %4, align 8, !tbaa !3
  store ptr %7, ptr %6, align 8, !tbaa !91
  %8 = getelementptr inbounds nuw %"class.std::__shared_ptr", ptr %5, i32 0, i32 1
  %9 = load ptr, ptr %4, align 8, !tbaa !3
  call void @_ZNSt14__shared_countILN9__gnu_cxx12_Lock_policyE2EEC2IPN2cv7optflow24RLOFOpticalFlowParameterEEET_St17integral_constantIbLb0EE(ptr noundef nonnull align 8 dereferenceable(8) %8, ptr noundef %9)
  %10 = load ptr, ptr %4, align 8, !tbaa !3
  call void @_ZNSt12__shared_ptrIN2cv7optflow24RLOFOpticalFlowParameterELN9__gnu_cxx12_Lock_policyE2EE31_M_enable_shared_from_this_withIS2_S2_EENSt9enable_ifIXntsr15__has_esft_baseIT0_EE5valueEvE4typeEPT_(ptr noundef nonnull align 8 dereferenceable(16) %5, ptr noundef %10) #3
  ret void
}

; Function Attrs: mustprogress uwtable
define linkonce_odr hidden void @_ZNSt10shared_ptrIN2cv7optflow24RLOFOpticalFlowParameterEEC2IS2_vEEPT_(ptr noundef nonnull align 8 dereferenceable(16) %0, ptr noundef %1) unnamed_addr #4 comdat align 2 {
  %3 = alloca ptr, align 8
  %4 = alloca ptr, align 8
  store ptr %0, ptr %3, align 8, !tbaa !87
  store ptr %1, ptr %4, align 8, !tbaa !3
  %5 = load ptr, ptr %3, align 8
  %6 = load ptr, ptr %4, align 8, !tbaa !3
  call void @_ZNSt12__shared_ptrIN2cv7optflow24RLOFOpticalFlowParameterELN9__gnu_cxx12_Lock_policyE2EEC2IS2_vEEPT_(ptr noundef nonnull align 8 dereferenceable(16) %5, ptr noundef %6)
  ret void
}

; Function Attrs: inlinehint mustprogress uwtable
define linkonce_odr hidden void @_ZN2cv3PtrINS_7optflow24RLOFOpticalFlowParameterEEC2IS2_EERKSt17integral_constantIbLb0EEPT_(ptr noundef nonnull align 8 dereferenceable(16) %0, ptr noundef nonnull align 1 dereferenceable(1) %1, ptr noundef %2) unnamed_addr #8 comdat align 2 {
  %4 = alloca ptr, align 8
  %5 = alloca ptr, align 8
  %6 = alloca ptr, align 8
  store ptr %0, ptr %4, align 8, !tbaa !28
  store ptr %1, ptr %5, align 8, !tbaa !85
  store ptr %2, ptr %6, align 8, !tbaa !3
  %7 = load ptr, ptr %4, align 8
  %8 = load ptr, ptr %6, align 8, !tbaa !3
  call void @_ZNSt10shared_ptrIN2cv7optflow24RLOFOpticalFlowParameterEEC2IS2_vEEPT_(ptr noundef nonnull align 8 dereferenceable(16) %7, ptr noundef %8)
  ret void
}

; Function Attrs: mustprogress nounwind uwtable
define linkonce_odr hidden noundef float @_ZNSt14numeric_limitsIfE3maxEv() #6 comdat align 2 {
  ret float 0x47EFFFFFE0000000
}

; Function Attrs: inlinehint mustprogress uwtable
define linkonce_odr hidden void @_ZN2cv3PtrINS_7optflow24RLOFOpticalFlowParameterEEC2IS2_EEPT_(ptr noundef nonnull align 8 dereferenceable(16) %0, ptr noundef %1) unnamed_addr #8 comdat align 2 {
  %3 = alloca ptr, align 8
  %4 = alloca ptr, align 8
  %5 = alloca %"struct.cv::has_custom_delete", align 1
  store ptr %0, ptr %3, align 8, !tbaa !28
  store ptr %1, ptr %4, align 8, !tbaa !3
  %6 = load ptr, ptr %3, align 8
  call void @llvm.lifetime.start.p0(i64 1, ptr %5) #3
  %7 = load ptr, ptr %4, align 8, !tbaa !3
  call void @_ZN2cv3PtrINS_7optflow24RLOFOpticalFlowParameterEEC2IS2_EERKSt17integral_constantIbLb0EEPT_(ptr noundef nonnull align 8 dereferenceable(16) %6, ptr noundef nonnull align 1 dereferenceable(1) %5, ptr noundef %7)
  call void @llvm.lifetime.end.p0(i64 1, ptr %5) #3
  ret void
}

; Function Attrs: mustprogress nounwind uwtable
define linkonce_odr hidden void @_ZN2cv7optflow24RLOFOpticalFlowParameterC2Ev(ptr noundef nonnull align 4 dereferenceable(48) %0) unnamed_addr #6 comdat align 2 {
  %2 = alloca ptr, align 8
  store ptr %0, ptr %2, align 8, !tbaa !3
  %3 = load ptr, ptr %2, align 8
  %4 = getelementptr inbounds nuw %"class.cv::optflow::RLOFOpticalFlowParameter", ptr %3, i32 0, i32 0
  store i32 1, ptr %4, align 4, !tbaa !8
  %5 = getelementptr inbounds nuw %"class.cv::optflow::RLOFOpticalFlowParameter", ptr %3, i32 0, i32 1
  store i32 1, ptr %5, align 4, !tbaa !15
  %6 = getelementptr inbounds nuw %"class.cv::optflow::RLOFOpticalFlowParameter", ptr %3, i32 0, i32 2
  %7 = call noundef float @_ZNSt14numeric_limitsIfE3maxEv() #3
  store float %7, ptr %6, align 4, !tbaa !16
  %8 = getelementptr inbounds nuw %"class.cv::optflow::RLOFOpticalFlowParameter", ptr %3, i32 0, i32 3
  %9 = call noundef float @_ZNSt14numeric_limitsIfE3maxEv() #3
  store float %9, ptr %8, align 4, !tbaa !17
  %10 = getelementptr inbounds nuw %"class.cv::optflow::RLOFOpticalFlowParameter", ptr %3, i32 0, i32 4
  store i32 9, ptr %10, align 4, !tbaa !18
  %11 = getelementptr inbounds nuw %"class.cv::optflow::RLOFOpticalFlowParameter", ptr %3, i32 0, i32 5
  store i32 21, ptr %11, align 4, !tbaa !19
  %12 = getelementptr inbounds nuw %"class.cv::optflow::RLOFOpticalFlowParameter", ptr %3, i32 0, i32 6
  store i32 25, ptr %12, align 4, !tbaa !20
  %13 = getelementptr inbounds nuw %"class.cv::optflow::RLOFOpticalFlowParameter", ptr %3, i32 0, i32 7
  store i32 4, ptr %13, align 4, !tbaa !21
  %14 = getelementptr inbounds nuw %"class.cv::optflow::RLOFOpticalFlowParameter", ptr %3, i32 0, i32 8
  store i8 0, ptr %14, align 4, !tbaa !22
  %15 = getelementptr inbounds nuw %"class.cv::optflow::RLOFOpticalFlowParameter", ptr %3, i32 0, i32 9
  store i8 1, ptr %15, align 1, !tbaa !23
  %16 = getelementptr inbounds nuw %"class.cv::optflow::RLOFOpticalFlowParameter", ptr %3, i32 0, i32 10
  store i8 1, ptr %16, align 2, !tbaa !24
  %17 = getelementptr inbounds nuw %"class.cv::optflow::RLOFOpticalFlowParameter", ptr %3, i32 0, i32 11
  store i32 30, ptr %17, align 4, !tbaa !25
  %18 = getelementptr inbounds nuw %"class.cv::optflow::RLOFOpticalFlowParameter", ptr %3, i32 0, i32 12
  store float 0x3F1A36E2E0000000, ptr %18, align 4, !tbaa !26
  %19 = getelementptr inbounds nuw %"class.cv::optflow::RLOFOpticalFlowParameter", ptr %3, i32 0, i32 13
  store float 1.000000e+01, ptr %19, align 4, !tbaa !27
  ret void
}

; Function Attrs: mustprogress uwtable
define void @_ZN2cv7optflow24RLOFOpticalFlowParameter6createEv(ptr dead_on_unwind noalias writable sret(%"struct.cv::Ptr") align 8 %0) #4 align 2 personality ptr @__gxx_personality_v0 {
  %2 = alloca ptr, align 8
  %3 = alloca ptr, align 8
  %4 = alloca i32, align 4
  store ptr %0, ptr %2, align 8
  %5 = call noalias noundef nonnull ptr @_Znwm(i64 noundef 48) #25
  invoke void @_ZN2cv7optflow24RLOFOpticalFlowParameterC2Ev(ptr noundef nonnull align 4 dereferenceable(48) %5)
          to label %6 unwind label %7

6:                                                ; preds = %1
  call void @_ZN2cv3PtrINS_7optflow24RLOFOpticalFlowParameterEEC2IS2_EEPT_(ptr noundef nonnull align 8 dereferenceable(16) %0, ptr noundef %5)
  ret void

7:                                                ; preds = %1
  %8 = landingpad { ptr, i32 }
          cleanup
  %9 = extractvalue { ptr, i32 } %8, 0
  store ptr %9, ptr %3, align 8
  %10 = extractvalue { ptr, i32 } %8, 1
  store i32 %10, ptr %4, align 4
  call void @_ZdlPv(ptr noundef %5) #26
  br label %11

11:                                               ; preds = %7
  %12 = load ptr, ptr %3, align 8
  %13 = load i32, ptr %4, align 4
  %14 = insertvalue { ptr, i32 } poison, ptr %12, 0
  %15 = insertvalue { ptr, i32 } %14, i32 %13, 1
  resume { ptr, i32 } %15
}