; Function Attrs: mustprogress uwtable
define void @_ZN2cv7optflow24RLOFOpticalFlowParameter6createEv(ptr dead_on_unwind noalias writable writeonly sret(%"struct.cv::Ptr") align 8 captures(none) initializes((0, 16)) %0) local_unnamed_addr #3 align 2 personality ptr @__gxx_personality_v0 {
  %2 = tail call noalias noundef nonnull dereferenceable(48) ptr @_Znwm(i64 noundef 48) #26
  store i32 1, ptr %2, align 4, !tbaa !3
  %3 = getelementptr inbounds nuw i8, ptr %2, i64 4
  store i32 1, ptr %3, align 4, !tbaa !12
  %4 = getelementptr inbounds nuw i8, ptr %2, i64 8
  store float 0x47EFFFFFE0000000, ptr %4, align 4, !tbaa !13
  %5 = getelementptr inbounds nuw i8, ptr %2, i64 12
  store float 0x47EFFFFFE0000000, ptr %5, align 4, !tbaa !14
  %6 = getelementptr inbounds nuw i8, ptr %2, i64 16
  store i32 9, ptr %6, align 4, !tbaa !15
  %7 = getelementptr inbounds nuw i8, ptr %2, i64 20
  store i32 21, ptr %7, align 4, !tbaa !16
  %8 = getelementptr inbounds nuw i8, ptr %2, i64 24
  store i32 25, ptr %8, align 4, !tbaa !17
  %9 = getelementptr inbounds nuw i8, ptr %2, i64 28
  store i32 4, ptr %9, align 4, !tbaa !18
  %10 = getelementptr inbounds nuw i8, ptr %2, i64 32
  store i8 0, ptr %10, align 4, !tbaa !19
  %11 = getelementptr inbounds nuw i8, ptr %2, i64 33
  store i8 1, ptr %11, align 1, !tbaa !20
  %12 = getelementptr inbounds nuw i8, ptr %2, i64 34
  store i8 1, ptr %12, align 2, !tbaa !21
  %13 = getelementptr inbounds nuw i8, ptr %2, i64 36
  store i32 30, ptr %13, align 4, !tbaa !22
  %14 = getelementptr inbounds nuw i8, ptr %2, i64 40
  store float 0x3F1A36E2E0000000, ptr %14, align 4, !tbaa !23
  %15 = getelementptr inbounds nuw i8, ptr %2, i64 44
  store float 1.000000e+01, ptr %15, align 4, !tbaa !24
  store ptr %2, ptr %0, align 8, !tbaa !25
  %16 = getelementptr inbounds nuw i8, ptr %0, i64 8
  store ptr null, ptr %16, align 8, !tbaa !31
  %17 = invoke noalias noundef nonnull dereferenceable(24) ptr @_Znwm(i64 noundef 24) #26
          to label %_ZN2cv3PtrINS_7optflow24RLOFOpticalFlowParameterEEC2IS2_EEPT_.exit unwind label %18

18:                                               ; preds = %1
  %19 = landingpad { ptr, i32 }
          catch ptr null
  %20 = extractvalue { ptr, i32 } %19, 0
  %21 = tail call ptr @__cxa_begin_catch(ptr %20) #27
  tail call void @_ZdlPv(ptr noundef nonnull %2) #28
  invoke void @__cxa_rethrow() #29
          to label %28 unwind label %22

22:                                               ; preds = %18
  %23 = landingpad { ptr, i32 }
          cleanup
  invoke void @__cxa_end_catch()
          to label %24 unwind label %25

24:                                               ; preds = %22
  resume { ptr, i32 } %23

25:                                               ; preds = %22
  %26 = landingpad { ptr, i32 }
          catch ptr null
  %27 = extractvalue { ptr, i32 } %26, 0
  tail call void @__clang_call_terminate(ptr %27) #30
  unreachable

28:                                               ; preds = %18
  unreachable

_ZN2cv3PtrINS_7optflow24RLOFOpticalFlowParameterEEC2IS2_EEPT_.exit: ; preds = %1
  %29 = getelementptr inbounds nuw i8, ptr %17, i64 8
  store i32 1, ptr %29, align 8, !tbaa !32
  %30 = getelementptr inbounds nuw i8, ptr %17, i64 12
  store i32 1, ptr %30, align 4, !tbaa !34
  store ptr getelementptr inbounds nuw inrange(-16, 40) (i8, ptr @_ZTVSt15_Sp_counted_ptrIPN2cv7optflow24RLOFOpticalFlowParameterELN9__gnu_cxx12_Lock_policyE2EE, i64 16), ptr %17, align 8, !tbaa !35
  %31 = getelementptr inbounds nuw i8, ptr %17, i64 16
  store ptr %2, ptr %31, align 8, !tbaa !37
  store ptr %17, ptr %16, align 8, !tbaa !31
  ret void
}